; Function Attrs: nounwind uwtable
define internal noundef i32 @lzma_clear(ptr noundef %0) #0 {
  %2 = tail call ptr @PyModule_GetState(ptr noundef %0) #10
  %3 = load ptr, ptr %2, align 8, !tbaa !13
  %.not = icmp eq ptr %3, null
  br i1 %.not, label %Py_DECREF.exit, label %4

4:                                                ; preds = %1
  store ptr null, ptr %2, align 8, !tbaa !13
  %5 = load i32, ptr %3, align 8, !tbaa !14
  %.not.i = icmp sgt i32 %5, -1
  br i1 %.not.i, label %6, label %Py_DECREF.exit

6:                                                ; preds = %4
  %7 = add nsw i32 %5, -1
  store i32 %7, ptr %3, align 8, !tbaa !14
  %8 = icmp eq i32 %7, 0
  br i1 %8, label %9, label %Py_DECREF.exit

9:                                                ; preds = %6
  tail call void @_Py_Dealloc(ptr noundef nonnull %3) #10
  br label %Py_DECREF.exit

Py_DECREF.exit:                                   ; preds = %9, %6, %4, %1
  %10 = getelementptr inbounds nuw i8, ptr %2, i64 8
  %11 = load ptr, ptr %10, align 8, !tbaa !13
  %.not24 = icmp eq ptr %11, null
  br i1 %.not24, label %Py_DECREF.exit28, label %12

12:                                               ; preds = %Py_DECREF.exit
  store ptr null, ptr %10, align 8, !tbaa !13
  %13 = load i32, ptr %11, align 8, !tbaa !14
  %.not.i27 = icmp sgt i32 %13, -1
  br i1 %.not.i27, label %14, label %Py_DECREF.exit28

14:                                               ; preds = %12
  %15 = add nsw i32 %13, -1
  store i32 %15, ptr %11, align 8, !tbaa !14
  %16 = icmp eq i32 %15, 0
  br i1 %16, label %17, label %Py_DECREF.exit28

17:                                               ; preds = %14
  tail call void @_Py_Dealloc(ptr noundef nonnull %11) #10
  br label %Py_DECREF.exit28

Py_DECREF.exit28:                                 ; preds = %17, %14, %12, %Py_DECREF.exit
  %18 = getelementptr inbounds nuw i8, ptr %2, i64 16
  %19 = load ptr, ptr %18, align 8, !tbaa !15
  %.not25 = icmp eq ptr %19, null
  br i1 %.not25, label %Py_DECREF.exit30, label %20

20:                                               ; preds = %Py_DECREF.exit28
  store ptr null, ptr %18, align 8, !tbaa !15
  %21 = load i32, ptr %19, align 8, !tbaa !14
  %.not.i29 = icmp sgt i32 %21, -1
  br i1 %.not.i29, label %22, label %Py_DECREF.exit30

22:                                               ; preds = %20
  %23 = add nsw i32 %21, -1
  store i32 %23, ptr %19, align 8, !tbaa !14
  %24 = icmp eq i32 %23, 0
  br i1 %24, label %25, label %Py_DECREF.exit30

25:                                               ; preds = %22
  tail call void @_Py_Dealloc(ptr noundef nonnull %19) #10
  br label %Py_DECREF.exit30

Py_DECREF.exit30:                                 ; preds = %25, %22, %20, %Py_DECREF.exit28
  %26 = getelementptr inbounds nuw i8, ptr %2, i64 24
  %27 = load ptr, ptr %26, align 8, !tbaa !15
  %.not26 = icmp eq ptr %27, null
  br i1 %.not26, label %Py_DECREF.exit32, label %28

28:                                               ; preds = %Py_DECREF.exit30
  store ptr null, ptr %26, align 8, !tbaa !15
  %29 = load i32, ptr %27, align 8, !tbaa !14
  %.not.i31 = icmp sgt i32 %29, -1
  br i1 %.not.i31, label %30, label %Py_DECREF.exit32

30:                                               ; preds = %28
  %31 = add nsw i32 %29, -1
  store i32 %31, ptr %27, align 8, !tbaa !14
  %32 = icmp eq i32 %31, 0
  br i1 %32, label %33, label %Py_DECREF.exit32

33:                                               ; preds = %30
  tail call void @_Py_Dealloc(ptr noundef nonnull %27) #10
  br label %Py_DECREF.exit32

Py_DECREF.exit32:                                 ; preds = %33, %30, %28, %Py_DECREF.exit30
  ret i32 0
}